target datalayout = "e-m:e-p270:32:32-p271:32:32-p272:64:64-i64:64-i128:128-f80:128-n8:16:32:64-S128"
target triple = "x86_64-unknown-linux-gnu"

%"class.fmt::v10::file" = type { i32 }
%class.output_redirect = type { ptr, %"class.fmt::v10::file", %"class.fmt::v10::file" }

@_ZTISt9exception = external constant ptr
@stderr = external global ptr, align 8

; Function Attrs: mustprogress nounwind uwtable
define linkonce_odr hidden noundef i32 @_ZNK3fmt3v104file10descriptorEv(ptr noundef nonnull align 4 dereferenceable(4) %this) #5 comdat align 2 {
entry:
  %this.addr = alloca ptr, align 8
  store ptr %this, ptr %this.addr, align 8
  %this1 = load ptr, ptr %this.addr, align 8
  %fd_ = getelementptr inbounds %"class.fmt::v10::file", ptr %this1, i32 0, i32 0
  %0 = load i32, ptr %fd_, align 4
  ret i32 %0
}

; Function Attrs: mustprogress uwtable
define hidden void @_ZN15output_redirect7restoreEv(ptr noundef nonnull align 8 dereferenceable(16) %this) #4 align 2 {
entry:
  %this.addr = alloca ptr, align 8
  store ptr %this, ptr %this.addr, align 8
  %this1 = load ptr, ptr %this.addr, align 8
  %original_ = getelementptr inbounds %class.output_redirect, ptr %this1, i32 0, i32 1
  %call = call noundef i32 @_ZNK3fmt3v104file10descriptorEv(ptr noundef nonnull align 4 dereferenceable(4) %original_) #3
  %cmp = icmp eq i32 %call, -1
  br i1 %cmp, label %if.then, label %if.end

if.then:                                          ; preds = %entry
  br label %return

if.end:                                           ; preds = %entry
  call void @_ZN15output_redirect5flushEv(ptr noundef nonnull align 8 dereferenceable(16) %this1)
  %original_2 = getelementptr inbounds %class.output_redirect, ptr %this1, i32 0, i32 1
  %file_ = getelementptr inbounds %class.output_redirect, ptr %this1, i32 0, i32 0
  %0 = load ptr, ptr %file_, align 8
  %call3 = call i32 @fileno(ptr noundef %0) #3
  call void @_ZN3fmt3v104file4dup2Ei(ptr noundef nonnull align 4 dereferenceable(4) %original_2, i32 noundef %call3)
  %original_4 = getelementptr inbounds %class.output_redirect, ptr %this1, i32 0, i32 1
  call void @_ZN3fmt3v104file5closeEv(ptr noundef nonnull align 4 dereferenceable(4) %original_4)
  br label %return

return:                                           ; preds = %if.end, %if.then
  ret void
}

; Function Attrs: mustprogress nounwind uwtable
define hidden void @_ZN15output_redirectD2Ev(ptr noundef nonnull align 8 dereferenceable(16) %this) unnamed_addr #5 align 2 personality ptr @__gxx_personality_v0 {
entry:
  %this.addr = alloca ptr, align 8
  %exn.slot = alloca ptr, align 8
  %ehselector.slot = alloca i32, align 4
  %e = alloca ptr, align 8
  store ptr %this, ptr %this.addr, align 8
  %this1 = load ptr, ptr %this.addr, align 8
  invoke void @_ZN15output_redirect7restoreEv(ptr noundef nonnull align 8 dereferenceable(16) %this1)
          to label %invoke.cont unwind label %lpad

invoke.cont:                                      ; preds = %entry
  br label %try.cont

lpad:                                             ; preds = %entry
  %0 = landingpad { ptr, i32 }
          catch ptr @_ZTISt9exception
          catch ptr null
  %1 = extractvalue { ptr, i32 } %0, 0
  store ptr %1, ptr %exn.slot, align 8
  %2 = extractvalue { ptr, i32 } %0, 1
  store i32 %2, ptr %ehselector.slot, align 4
  br label %catch.dispatch

catch.dispatch:                                   ; preds = %lpad
  %sel = load i32, ptr %ehselector.slot, align 4
  %3 = call i32 @llvm.eh.typeid.for(ptr @_ZTISt9exception) #3
  %matches = icmp eq i32 %sel, %3
  br i1 %matches, label %catch, label %terminate.handler

catch:                                            ; preds = %catch.dispatch
  %exn = load ptr, ptr %exn.slot, align 8
  %4 = call ptr @__cxa_begin_catch(ptr %exn) #3
  store ptr %4, ptr %e, align 8
  %5 = load ptr, ptr %e, align 8
  %vtable = load ptr, ptr %5, align 8
  %vfn = getelementptr inbounds ptr, ptr %vtable, i64 2
  %6 = load ptr, ptr %vfn, align 8
  %call = call noundef ptr %6(ptr noundef nonnull align 8 dereferenceable(8) %5) #3
  %7 = load ptr, ptr @stderr, align 8
  %call3 = invoke i32 @fputs(ptr noundef %call, ptr noundef %7)
          to label %invoke.cont2 unwind label %terminate.lpad

invoke.cont2:                                     ; preds = %catch
  invoke void @__cxa_end_catch()
          to label %invoke.cont4 unwind label %terminate.lpad

invoke.cont4:                                     ; preds = %invoke.cont2
  br label %try.cont

try.cont:                                         ; preds = %invoke.cont4, %invoke.cont
  %read_end_ = getelementptr inbounds %class.output_redirect, ptr %this1, i32 0, i32 2
  call void @_ZN3fmt3v104fileD1Ev(ptr noundef nonnull align 4 dereferenceable(4) %read_end_) #3
  %original_ = getelementptr inbounds %class.output_redirect, ptr %this1, i32 0, i32 1
  call void @_ZN3fmt3v104fileD1Ev(ptr noundef nonnull align 4 dereferenceable(4) %original_) #3
  ret void

terminate.lpad:                                   ; preds = %invoke.cont2, %catch
  %8 = landingpad { ptr, i32 }
          catch ptr null
  %9 = extractvalue { ptr, i32 } %8, 0
  call void @__clang_call_terminate(ptr %9) #21
  unreachable

terminate.handler:                                ; preds = %catch.dispatch
  %exn5 = load ptr, ptr %exn.slot, align 8
  call void @__clang_call_terminate(ptr %exn5) #21
  unreachable
}