; Function Attrs: mustprogress nounwind uwtable
define hidden void @_ZN15output_redirectD2Ev(ptr noundef nonnull align 8 dereferenceable(16) %this) unnamed_addr #5 align 2 personality ptr @__gxx_personality_v0 {
entry:
  %original_.i = getelementptr inbounds i8, ptr %this, i64 8
  %0 = load i32, ptr %original_.i, align 8
  %cmp.i = icmp eq i32 %0, -1
  br i1 %cmp.i, label %try.cont, label %if.end.i

if.end.i:                                         ; preds = %entry
  invoke void @_ZN15output_redirect5flushEv(ptr noundef nonnull align 8 dereferenceable(16) %this)
          to label %.noexc unwind label %lpad

.noexc:                                           ; preds = %if.end.i
  %1 = load ptr, ptr %this, align 8
  %call3.i = tail call i32 @fileno(ptr noundef %1) #25
  invoke void @_ZN3fmt3v104file4dup2Ei(ptr noundef nonnull align 4 dereferenceable(4) %original_.i, i32 noundef %call3.i)
          to label %.noexc1 unwind label %lpad

.noexc1:                                          ; preds = %.noexc
  invoke void @_ZN3fmt3v104file5closeEv(ptr noundef nonnull align 4 dereferenceable(4) %original_.i)
          to label %try.cont unwind label %lpad

lpad:                                             ; preds = %.noexc1, %.noexc, %if.end.i
  %2 = landingpad { ptr, i32 }
          catch ptr @_ZTISt9exception
          catch ptr null
  %3 = extractvalue { ptr, i32 } %2, 0
  %4 = extractvalue { ptr, i32 } %2, 1
  %5 = tail call i32 @llvm.eh.typeid.for(ptr nonnull @_ZTISt9exception) #25
  %matches = icmp eq i32 %4, %5
  br i1 %matches, label %catch, label %terminate.handler

catch:                                            ; preds = %lpad
  %6 = tail call ptr @__cxa_begin_catch(ptr %3) #25
  %vtable = load ptr, ptr %6, align 8
  %vfn = getelementptr inbounds i8, ptr %vtable, i64 16
  %7 = load ptr, ptr %vfn, align 8
  %call = tail call noundef ptr %7(ptr noundef nonnull align 8 dereferenceable(8) %6) #25
  %8 = load ptr, ptr @stderr, align 8
  %call3 = tail call i32 @fputs(ptr noundef %call, ptr noundef %8) #28
  invoke void @__cxa_end_catch()
          to label %try.cont unwind label %terminate.lpad

try.cont:                                         ; preds = %entry, %.noexc1, %catch
  %read_end_ = getelementptr inbounds i8, ptr %this, i64 12
  tail call void @_ZN3fmt3v104fileD1Ev(ptr noundef nonnull align 4 dereferenceable(4) %read_end_) #25
  tail call void @_ZN3fmt3v104fileD1Ev(ptr noundef nonnull align 4 dereferenceable(4) %original_.i) #25
  ret void

terminate.lpad:                                   ; preds = %catch
  %9 = landingpad { ptr, i32 }
          catch ptr null
  %10 = extractvalue { ptr, i32 } %9, 0
  tail call void @__clang_call_terminate(ptr %10) #29
  unreachable

terminate.handler:                                ; preds = %lpad
  tail call void @__clang_call_terminate(ptr %3) #29
  unreachable
}